; Function Attrs: nounwind uwtable
define noalias nonnull ptr @l_Lean_Loop_forIn_loop___at___private_Lean_Meta_Tactic_Grind_Internalize_0__Lean_Meta_Grind_addSplitCandidatesForExt___spec__1___lambda__1(ptr noundef %0, ptr noundef %1, ptr noundef %2, ptr readnone captures(none) %3, ptr readnone captures(none) %4, ptr readnone captures(none) %5, ptr readnone captures(none) %6, ptr readnone captures(none) %7, ptr readnone captures(none) %8, ptr readnone captures(none) %9, ptr readnone captures(none) %10, ptr readnone captures(none) %11, ptr noundef %12) local_unnamed_addr #1 {
  %14 = tail call ptr @l_Lean_Expr_appFn_x21(ptr noundef %2) #4
  tail call void @lean_inc_heartbeat() #4
  %15 = tail call noalias ptr @mi_malloc_small(i64 noundef 24) #4
  %16 = icmp eq ptr %15, null
  br i1 %16, label %17, label %lean_alloc_ctor.exit

17:                                               ; preds = %13
  tail call void @lean_internal_panic_out_of_memory() #5
  unreachable

lean_alloc_ctor.exit:                             ; preds = %13
  %18 = getelementptr inbounds nuw i8, ptr %15, i64 4
  store i32 1, ptr %15, align 4, !tbaa !4
  store i32 131096, ptr %18, align 4
  %19 = getelementptr inbounds nuw i8, ptr %15, i64 8
  store ptr %0, ptr %19, align 8, !tbaa !9
  %20 = getelementptr inbounds nuw i8, ptr %15, i64 16
  store ptr %14, ptr %20, align 8, !tbaa !9
  tail call void @lean_inc_heartbeat() #4
  %21 = tail call noalias ptr @mi_malloc_small(i64 noundef 24) #4
  %22 = icmp eq ptr %21, null
  br i1 %22, label %23, label %lean_alloc_ctor.exit16

23:                                               ; preds = %lean_alloc_ctor.exit
  tail call void @lean_internal_panic_out_of_memory() #5
  unreachable

lean_alloc_ctor.exit16:                           ; preds = %lean_alloc_ctor.exit
  %24 = getelementptr inbounds nuw i8, ptr %21, i64 4
  store i32 1, ptr %21, align 4, !tbaa !4
  store i32 131096, ptr %24, align 4
  %25 = getelementptr inbounds nuw i8, ptr %21, i64 8
  store ptr %1, ptr %25, align 8, !tbaa !9
  %26 = getelementptr inbounds nuw i8, ptr %21, i64 16
  store ptr %15, ptr %26, align 8, !tbaa !9
  tail call void @lean_inc_heartbeat() #4
  %27 = tail call noalias ptr @mi_malloc_small(i64 noundef 16) #4
  %28 = icmp eq ptr %27, null
  br i1 %28, label %29, label %lean_alloc_ctor.exit17

29:                                               ; preds = %lean_alloc_ctor.exit16
  tail call void @lean_internal_panic_out_of_memory() #5
  unreachable

lean_alloc_ctor.exit17:                           ; preds = %lean_alloc_ctor.exit16
  %30 = getelementptr inbounds nuw i8, ptr %27, i64 4
  store i32 1, ptr %27, align 4, !tbaa !4
  store i32 16842768, ptr %30, align 4
  %31 = getelementptr inbounds nuw i8, ptr %27, i64 8
  store ptr %21, ptr %31, align 8, !tbaa !9
  tail call void @lean_inc_heartbeat() #4
  %32 = tail call noalias ptr @mi_malloc_small(i64 noundef 24) #4
  %33 = icmp eq ptr %32, null
  br i1 %33, label %34, label %lean_alloc_ctor.exit18

34:                                               ; preds = %lean_alloc_ctor.exit17
  tail call void @lean_internal_panic_out_of_memory() #5
  unreachable

lean_alloc_ctor.exit18:                           ; preds = %lean_alloc_ctor.exit17
  %35 = getelementptr inbounds nuw i8, ptr %32, i64 4
  store i32 1, ptr %32, align 4, !tbaa !4
  store i32 131096, ptr %35, align 4
  %36 = getelementptr inbounds nuw i8, ptr %32, i64 8
  store ptr %27, ptr %36, align 8, !tbaa !9
  %37 = getelementptr inbounds nuw i8, ptr %32, i64 16
  store ptr %12, ptr %37, align 8, !tbaa !9
  ret ptr %32
}